target datalayout = "e-m:e-p270:32:32-p271:32:32-p272:64:64-i64:64-i128:128-f80:128-n8:16:32:64-S128"
target triple = "x86_64-pc-linux-gnu"

%struct.AVProbeData = type { ptr, ptr, i32, ptr }
%struct.AVRational = type { i32, i32 }
%struct.AVFormatContext = type { ptr, ptr, ptr, ptr, ptr, i32, i32, ptr, i32, ptr, i32, ptr, ptr, i64, i64, i64, i32, i32, i32, i64, i64, ptr, i32, i32, ptr, i32, i32, i32, i32, ptr, i64, i32, i32, %struct.AVIOInterruptCB, i32, i32, i32, i32, i64, i32, i32, i32, i32, i32, i32, i32, i32, i32, i32, i32, i32, i64, i32, i32, i32, i32, i32, ptr, ptr, ptr, ptr, i32, ptr, ptr, ptr, ptr, i32, ptr, ptr, i64, ptr, ptr, ptr, i64 }
%struct.AVIOInterruptCB = type { ptr, ptr }
%struct.AVStream = type { ptr, i32, i32, ptr, ptr, %struct.AVRational, i64, i64, i64, i32, i32, %struct.AVRational, ptr, %struct.AVRational, %struct.AVPacket, i32, %struct.AVRational, i32 }
%struct.AVPacket = type { ptr, i64, i64, ptr, i32, i32, i32, ptr, i32, i64, i64, ptr, ptr, %struct.AVRational }
%struct.AVCodecParameters = type { i32, i32, i32, ptr, i32, ptr, i32, i32, i64, i32, i32, i32, i32, i32, i32, %struct.AVRational, %struct.AVRational, i32, i32, i32, i32, i32, i32, i32, %struct.AVChannelLayout, i32, i32, i32, i32, i32, i32 }
%struct.AVChannelLayout = type { i32, i32, %union.anon, ptr }
%union.anon = type { i64 }

@.str = private unnamed_addr constant [5 x i8] c"mods\00", align 1
@.str.1 = private unnamed_addr constant [14 x i8] c"MobiClip MODS\00", align 1
@ff_mods_demuxer = constant { { ptr, ptr, i32, [4 x i8], ptr, ptr, ptr, ptr }, i32, i32, i32, [4 x i8], ptr, ptr, ptr, ptr, ptr, ptr, ptr, ptr, ptr, ptr } { { ptr, ptr, i32, [4 x i8], ptr, ptr, ptr, ptr } { ptr @.str, ptr @.str.1, i32 256, [4 x i8] zeroinitializer, ptr @.str, ptr null, ptr null, ptr null }, i32 0, i32 0, i32 0, [4 x i8] zeroinitializer, ptr @mods_probe, ptr @mods_read_header, ptr @mods_read_packet, ptr null, ptr null, ptr null, ptr null, ptr null, ptr null, ptr null }, align 8
@.str.2 = private unnamed_addr constant [9 x i8] c"MODSN3\0A\00\00", align 1

; Function Attrs: nounwind uwtable
define internal i32 @mods_probe(ptr noundef %0) #0 {
  %2 = alloca i32, align 4
  %3 = alloca ptr, align 8
  store ptr %0, ptr %3, align 8, !tbaa !4
  %4 = load ptr, ptr %3, align 8, !tbaa !4
  %5 = getelementptr inbounds nuw %struct.AVProbeData, ptr %4, i32 0, i32 1
  %6 = load ptr, ptr %5, align 8, !tbaa !9
  %7 = call i32 @memcmp(ptr noundef %6, ptr noundef @.str.2, i64 noundef 8) #6
  %8 = icmp ne i32 %7, 0
  br i1 %8, label %9, label %10

9:                                                ; preds = %1
  store i32 0, ptr %2, align 4
  br label %38

10:                                               ; preds = %1
  %11 = load ptr, ptr %3, align 8, !tbaa !4
  %12 = getelementptr inbounds nuw %struct.AVProbeData, ptr %11, i32 0, i32 1
  %13 = load ptr, ptr %12, align 8, !tbaa !9
  %14 = getelementptr inbounds i8, ptr %13, i64 8
  %15 = load i32, ptr %14, align 1, !tbaa !13
  %16 = call i32 @av_bswap32(i32 noundef %15) #7
  %17 = icmp eq i32 %16, 0
  br i1 %17, label %18, label %19

18:                                               ; preds = %10
  store i32 0, ptr %2, align 4
  br label %38

19:                                               ; preds = %10
  %20 = load ptr, ptr %3, align 8, !tbaa !4
  %21 = getelementptr inbounds nuw %struct.AVProbeData, ptr %20, i32 0, i32 1
  %22 = load ptr, ptr %21, align 8, !tbaa !9
  %23 = getelementptr inbounds i8, ptr %22, i64 12
  %24 = load i32, ptr %23, align 1, !tbaa !13
  %25 = call i32 @av_bswap32(i32 noundef %24) #7
  %26 = icmp eq i32 %25, 0
  br i1 %26, label %27, label %28

27:                                               ; preds = %19
  store i32 0, ptr %2, align 4
  br label %38

28:                                               ; preds = %19
  %29 = load ptr, ptr %3, align 8, !tbaa !4
  %30 = getelementptr inbounds nuw %struct.AVProbeData, ptr %29, i32 0, i32 1
  %31 = load ptr, ptr %30, align 8, !tbaa !9
  %32 = getelementptr inbounds i8, ptr %31, i64 16
  %33 = load i32, ptr %32, align 1, !tbaa !13
  %34 = call i32 @av_bswap32(i32 noundef %33) #7
  %35 = icmp eq i32 %34, 0
  br i1 %35, label %36, label %37

36:                                               ; preds = %28
  store i32 0, ptr %2, align 4
  br label %38

37:                                               ; preds = %28
  store i32 100, ptr %2, align 4
  br label %38

38:                                               ; preds = %37, %36, %27, %18, %9
  %39 = load i32, ptr %2, align 4
  ret i32 %39
}

; Function Attrs: nounwind uwtable
define internal i32 @mods_read_header(ptr noundef %0) #0 {
  %2 = alloca i32, align 4
  %3 = alloca ptr, align 8
  %4 = alloca ptr, align 8
  %5 = alloca %struct.AVRational, align 4
  %6 = alloca i64, align 8
  %7 = alloca ptr, align 8
  %8 = alloca i32, align 4
  store ptr %0, ptr %3, align 8, !tbaa !14
  call void @llvm.lifetime.start.p0(i64 8, ptr %4) #8
  %9 = load ptr, ptr %3, align 8, !tbaa !14
  %10 = getelementptr inbounds nuw %struct.AVFormatContext, ptr %9, i32 0, i32 4
  %11 = load ptr, ptr %10, align 8, !tbaa !16
  store ptr %11, ptr %4, align 8, !tbaa !31
  call void @llvm.lifetime.start.p0(i64 8, ptr %5) #8
  call void @llvm.lifetime.start.p0(i64 8, ptr %6) #8
  call void @llvm.lifetime.start.p0(i64 8, ptr %7) #8
  %12 = load ptr, ptr %3, align 8, !tbaa !14
  %13 = call ptr @avformat_new_stream(ptr noundef %12, ptr noundef null)
  store ptr %13, ptr %7, align 8, !tbaa !32
  %14 = load ptr, ptr %7, align 8, !tbaa !32
  %15 = icmp ne ptr %14, null
  br i1 %15, label %17, label %16

16:                                               ; preds = %1
  store i32 -12, ptr %2, align 4
  store i32 1, ptr %8, align 4
  br label %69

17:                                               ; preds = %1
  %18 = load ptr, ptr %4, align 8, !tbaa !31
  %19 = call i64 @avio_skip(ptr noundef %18, i64 noundef 8)
  %20 = load ptr, ptr %4, align 8, !tbaa !31
  %21 = call i32 @avio_rl32(ptr noundef %20)
  %22 = zext i32 %21 to i64
  %23 = load ptr, ptr %7, align 8, !tbaa !32
  %24 = getelementptr inbounds nuw %struct.AVStream, ptr %23, i32 0, i32 8
  store i64 %22, ptr %24, align 8, !tbaa !34
  %25 = load ptr, ptr %7, align 8, !tbaa !32
  %26 = getelementptr inbounds nuw %struct.AVStream, ptr %25, i32 0, i32 3
  %27 = load ptr, ptr %26, align 8, !tbaa !41
  %28 = getelementptr inbounds nuw %struct.AVCodecParameters, ptr %27, i32 0, i32 0
  store i32 0, ptr %28, align 8, !tbaa !42
  %29 = load ptr, ptr %7, align 8, !tbaa !32
  %30 = getelementptr inbounds nuw %struct.AVStream, ptr %29, i32 0, i32 3
  %31 = load ptr, ptr %30, align 8, !tbaa !41
  %32 = getelementptr inbounds nuw %struct.AVCodecParameters, ptr %31, i32 0, i32 1
  store i32 249, ptr %32, align 4, !tbaa !45
  %33 = load ptr, ptr %4, align 8, !tbaa !31
  %34 = call i32 @avio_rl32(ptr noundef %33)
  %35 = load ptr, ptr %7, align 8, !tbaa !32
  %36 = getelementptr inbounds nuw %struct.AVStream, ptr %35, i32 0, i32 3
  %37 = load ptr, ptr %36, align 8, !tbaa !41
  %38 = getelementptr inbounds nuw %struct.AVCodecParameters, ptr %37, i32 0, i32 13
  store i32 %34, ptr %38, align 8, !tbaa !46
  %39 = load ptr, ptr %4, align 8, !tbaa !31
  %40 = call i32 @avio_rl32(ptr noundef %39)
  %41 = load ptr, ptr %7, align 8, !tbaa !32
  %42 = getelementptr inbounds nuw %struct.AVStream, ptr %41, i32 0, i32 3
  %43 = load ptr, ptr %42, align 8, !tbaa !41
  %44 = getelementptr inbounds nuw %struct.AVCodecParameters, ptr %43, i32 0, i32 14
  store i32 %40, ptr %44, align 4, !tbaa !47
  %45 = load ptr, ptr %4, align 8, !tbaa !31
  %46 = call i32 @avio_rl32(ptr noundef %45)
  %47 = getelementptr inbounds nuw %struct.AVRational, ptr %5, i32 0, i32 0
  store i32 %46, ptr %47, align 4, !tbaa !48
  %48 = getelementptr inbounds nuw %struct.AVRational, ptr %5, i32 0, i32 1
  store i32 16777216, ptr %48, align 4, !tbaa !49
  %49 = load ptr, ptr %7, align 8, !tbaa !32
  %50 = getelementptr inbounds nuw %struct.AVRational, ptr %5, i32 0, i32 1
  %51 = load i32, ptr %50, align 4, !tbaa !49
  %52 = getelementptr inbounds nuw %struct.AVRational, ptr %5, i32 0, i32 0
  %53 = load i32, ptr %52, align 4, !tbaa !48
  call void @avpriv_set_pts_info(ptr noundef %49, i32 noundef 64, i32 noundef %51, i32 noundef %53)
  %54 = load ptr, ptr %4, align 8, !tbaa !31
  %55 = call i64 @avio_skip(ptr noundef %54, i64 noundef 16)
  %56 = load ptr, ptr %4, align 8, !tbaa !31
  %57 = call i32 @avio_rl32(ptr noundef %56)
  %58 = add i32 %57, 4
  %59 = zext i32 %58 to i64
  store i64 %59, ptr %6, align 8, !tbaa !50
  %60 = load ptr, ptr %4, align 8, !tbaa !31
  %61 = load i64, ptr %6, align 8, !tbaa !50
  %62 = call i64 @avio_seek(ptr noundef %60, i64 noundef %61, i32 noundef 0)
  %63 = load ptr, ptr %4, align 8, !tbaa !31
  %64 = call i32 @avio_rl32(ptr noundef %63)
  %65 = zext i32 %64 to i64
  store i64 %65, ptr %6, align 8, !tbaa !50
  %66 = load ptr, ptr %4, align 8, !tbaa !31
  %67 = load i64, ptr %6, align 8, !tbaa !50
  %68 = call i64 @avio_seek(ptr noundef %66, i64 noundef %67, i32 noundef 0)
  store i32 0, ptr %2, align 4
  store i32 1, ptr %8, align 4
  br label %69

69:                                               ; preds = %17, %16
  call void @llvm.lifetime.end.p0(i64 8, ptr %7) #8
  call void @llvm.lifetime.end.p0(i64 8, ptr %6) #8
  call void @llvm.lifetime.end.p0(i64 8, ptr %5) #8
  call void @llvm.lifetime.end.p0(i64 8, ptr %4) #8
  %70 = load i32, ptr %2, align 4
  ret i32 %70
}

; Function Attrs: nounwind uwtable
define internal i32 @mods_read_packet(ptr noundef %0, ptr noundef %1) #0 {
  %3 = alloca i32, align 4
  %4 = alloca ptr, align 8
  %5 = alloca ptr, align 8
  %6 = alloca ptr, align 8
  %7 = alloca i32, align 4
  %8 = alloca i64, align 8
  %9 = alloca i32, align 4
  %10 = alloca i32, align 4
  store ptr %0, ptr %4, align 8, !tbaa !14
  store ptr %1, ptr %5, align 8, !tbaa !51
  call void @llvm.lifetime.start.p0(i64 8, ptr %6) #8
  %11 = load ptr, ptr %4, align 8, !tbaa !14
  %12 = getelementptr inbounds nuw %struct.AVFormatContext, ptr %11, i32 0, i32 4
  %13 = load ptr, ptr %12, align 8, !tbaa !16
  store ptr %13, ptr %6, align 8, !tbaa !31
  call void @llvm.lifetime.start.p0(i64 4, ptr %7) #8
  call void @llvm.lifetime.start.p0(i64 8, ptr %8) #8
  call void @llvm.lifetime.start.p0(i64 4, ptr %9) #8
  %14 = load ptr, ptr %6, align 8, !tbaa !31
  %15 = call i32 @avio_feof(ptr noundef %14)
  %16 = icmp ne i32 %15, 0
  br i1 %16, label %17, label %18

17:                                               ; preds = %2
  store i32 -541478725, ptr %3, align 4
  store i32 1, ptr %10, align 4
  br label %38

18:                                               ; preds = %2
  %19 = load ptr, ptr %6, align 8, !tbaa !31
  %20 = call i64 @avio_tell(ptr noundef %19)
  store i64 %20, ptr %8, align 8, !tbaa !50
  %21 = load ptr, ptr %6, align 8, !tbaa !31
  %22 = call i32 @avio_rl32(ptr noundef %21)
  %23 = lshr i32 %22, 14
  store i32 %23, ptr %7, align 4, !tbaa !53
  %24 = load ptr, ptr %6, align 8, !tbaa !31
  %25 = load ptr, ptr %5, align 8, !tbaa !51
  %26 = load i32, ptr %7, align 4, !tbaa !53
  %27 = call i32 @av_get_packet(ptr noundef %24, ptr noundef %25, i32 noundef %26)
  store i32 %27, ptr %9, align 4, !tbaa !53
  %28 = load i64, ptr %8, align 8, !tbaa !50
  %29 = load ptr, ptr %5, align 8, !tbaa !51
  %30 = getelementptr inbounds nuw %struct.AVPacket, ptr %29, i32 0, i32 10
  store i64 %28, ptr %30, align 8, !tbaa !54
  %31 = load ptr, ptr %5, align 8, !tbaa !51
  %32 = getelementptr inbounds nuw %struct.AVPacket, ptr %31, i32 0, i32 5
  store i32 0, ptr %32, align 4, !tbaa !55
  %33 = load ptr, ptr %5, align 8, !tbaa !51
  %34 = getelementptr inbounds nuw %struct.AVPacket, ptr %33, i32 0, i32 6
  %35 = load i32, ptr %34, align 8, !tbaa !56
  %36 = or i32 %35, 1
  store i32 %36, ptr %34, align 8, !tbaa !56
  %37 = load i32, ptr %9, align 4, !tbaa !53
  store i32 %37, ptr %3, align 4
  store i32 1, ptr %10, align 4
  br label %38

38:                                               ; preds = %18, %17
  call void @llvm.lifetime.end.p0(i64 4, ptr %9) #8
  call void @llvm.lifetime.end.p0(i64 8, ptr %8) #8
  call void @llvm.lifetime.end.p0(i64 4, ptr %7) #8
  call void @llvm.lifetime.end.p0(i64 8, ptr %6) #8
  %39 = load i32, ptr %3, align 4
  ret i32 %39
}

; Function Attrs: nounwind willreturn memory(read)
declare i32 @memcmp(ptr noundef, ptr noundef, i64 noundef) #1

; Function Attrs: alwaysinline nounwind willreturn memory(none) uwtable
define internal i32 @av_bswap32(i32 noundef %0) #2 {
  %2 = alloca i32, align 4
  store i32 %0, ptr %2, align 4, !tbaa !53
  %3 = load i32, ptr %2, align 4, !tbaa !53
  %4 = shl i32 %3, 8
  %5 = and i32 %4, 65280
  %6 = load i32, ptr %2, align 4, !tbaa !53
  %7 = lshr i32 %6, 8
  %8 = and i32 %7, 255
  %9 = or i32 %5, %8
  %10 = shl i32 %9, 16
  %11 = load i32, ptr %2, align 4, !tbaa !53
  %12 = lshr i32 %11, 16
  %13 = shl i32 %12, 8
  %14 = and i32 %13, 65280
  %15 = load i32, ptr %2, align 4, !tbaa !53
  %16 = lshr i32 %15, 16
  %17 = lshr i32 %16, 8
  %18 = and i32 %17, 255
  %19 = or i32 %14, %18
  %20 = or i32 %10, %19
  ret i32 %20
}

; Function Attrs: nocallback nofree nosync nounwind willreturn memory(argmem: readwrite)
declare void @llvm.lifetime.start.p0(i64 immarg, ptr captures(none)) #3

declare ptr @avformat_new_stream(ptr noundef, ptr noundef) #4

declare i64 @avio_skip(ptr noundef, i64 noundef) #4

declare i32 @avio_rl32(ptr noundef) #4

declare void @avpriv_set_pts_info(ptr noundef, i32 noundef, i32 noundef, i32 noundef) #4

declare i64 @avio_seek(ptr noundef, i64 noundef, i32 noundef) #4

; Function Attrs: nocallback nofree nosync nounwind willreturn memory(argmem: readwrite)
declare void @llvm.lifetime.end.p0(i64 immarg, ptr captures(none)) #3

declare i32 @avio_feof(ptr noundef) #4

; Function Attrs: alwaysinline nounwind uwtable
define internal i64 @avio_tell(ptr noundef %0) #5 {
  %2 = alloca ptr, align 8
  store ptr %0, ptr %2, align 8, !tbaa !31
  %3 = load ptr, ptr %2, align 8, !tbaa !31
  %4 = call i64 @avio_seek(ptr noundef %3, i64 noundef 0, i32 noundef 1)
  ret i64 %4
}

declare i32 @av_get_packet(ptr noundef, ptr noundef, i32 noundef) #4


!llvm.module.flags = !{!0, !1, !2, !3}

!0 = !{i32 1, !"wchar_size", i32 4}
!1 = !{i32 8, !"PIC Level", i32 2}
!2 = !{i32 7, !"uwtable", i32 2}
!3 = !{i32 1, !"override-stack-alignment", i32 16}
!4 = !{!5, !5, i64 0}
!5 = !{!"p1 _ZTS11AVProbeData", !6, i64 0}
!6 = !{!"any pointer", !7, i64 0}
!7 = !{!"omnipotent char", !8, i64 0}
!8 = !{!"Simple C/C++ TBAA"}
!9 = !{!10, !11, i64 8}
!10 = !{!"AVProbeData", !11, i64 0, !11, i64 8, !12, i64 16, !11, i64 24}
!11 = !{!"p1 omnipotent char", !6, i64 0}
!12 = !{!"int", !7, i64 0}
!13 = !{!7, !7, i64 0}
!14 = !{!15, !15, i64 0}
!15 = !{!"p1 _ZTS15AVFormatContext", !6, i64 0}
!16 = !{!17, !21, i64 32}
!17 = !{!"AVFormatContext", !18, i64 0, !19, i64 8, !20, i64 16, !6, i64 24, !21, i64 32, !12, i64 40, !12, i64 44, !22, i64 48, !12, i64 56, !24, i64 64, !12, i64 72, !25, i64 80, !11, i64 88, !26, i64 96, !26, i64 104, !26, i64 112, !12, i64 120, !12, i64 124, !12, i64 128, !26, i64 136, !26, i64 144, !11, i64 152, !12, i64 160, !12, i64 164, !27, i64 168, !12, i64 176, !12, i64 180, !12, i64 184, !12, i64 188, !28, i64 192, !26, i64 200, !12, i64 208, !12, i64 212, !29, i64 216, !12, i64 232, !12, i64 236, !12, i64 240, !12, i64 244, !26, i64 248, !12, i64 256, !12, i64 260, !12, i64 264, !12, i64 268, !12, i64 272, !12, i64 276, !12, i64 280, !12, i64 284, !12, i64 288, !12, i64 292, !12, i64 296, !12, i64 300, !26, i64 304, !12, i64 312, !12, i64 316, !12, i64 320, !12, i64 324, !12, i64 328, !11, i64 336, !11, i64 344, !11, i64 352, !11, i64 360, !12, i64 368, !30, i64 376, !30, i64 384, !30, i64 392, !30, i64 400, !12, i64 408, !6, i64 416, !6, i64 424, !26, i64 432, !11, i64 440, !6, i64 448, !6, i64 456, !26, i64 464}
!18 = !{!"p1 _ZTS7AVClass", !6, i64 0}
!19 = !{!"p1 _ZTS13AVInputFormat", !6, i64 0}
!20 = !{!"p1 _ZTS14AVOutputFormat", !6, i64 0}
!21 = !{!"p1 _ZTS11AVIOContext", !6, i64 0}
!22 = !{!"p2 _ZTS8AVStream", !23, i64 0}
!23 = !{!"any p2 pointer", !6, i64 0}
!24 = !{!"p2 _ZTS13AVStreamGroup", !23, i64 0}
!25 = !{!"p2 _ZTS9AVChapter", !23, i64 0}
!26 = !{!"long", !7, i64 0}
!27 = !{!"p2 _ZTS9AVProgram", !23, i64 0}
!28 = !{!"p1 _ZTS12AVDictionary", !6, i64 0}
!29 = !{!"AVIOInterruptCB", !6, i64 0, !6, i64 8}
!30 = !{!"p1 _ZTS7AVCodec", !6, i64 0}
!31 = !{!21, !21, i64 0}
!32 = !{!33, !33, i64 0}
!33 = !{!"p1 _ZTS8AVStream", !6, i64 0}
!34 = !{!35, !26, i64 56}
!35 = !{!"AVStream", !18, i64 0, !12, i64 8, !12, i64 12, !36, i64 16, !6, i64 24, !37, i64 32, !26, i64 40, !26, i64 48, !26, i64 56, !12, i64 64, !12, i64 68, !37, i64 72, !28, i64 80, !37, i64 88, !38, i64 96, !12, i64 200, !37, i64 204, !12, i64 212}
!36 = !{!"p1 _ZTS17AVCodecParameters", !6, i64 0}
!37 = !{!"AVRational", !12, i64 0, !12, i64 4}
!38 = !{!"AVPacket", !39, i64 0, !26, i64 8, !26, i64 16, !11, i64 24, !12, i64 32, !12, i64 36, !12, i64 40, !40, i64 48, !12, i64 56, !26, i64 64, !26, i64 72, !6, i64 80, !39, i64 88, !37, i64 96}
!39 = !{!"p1 _ZTS11AVBufferRef", !6, i64 0}
!40 = !{!"p1 _ZTS16AVPacketSideData", !6, i64 0}
!41 = !{!35, !36, i64 16}
!42 = !{!43, !12, i64 0}
!43 = !{!"AVCodecParameters", !12, i64 0, !12, i64 4, !12, i64 8, !11, i64 16, !12, i64 24, !40, i64 32, !12, i64 40, !12, i64 44, !26, i64 48, !12, i64 56, !12, i64 60, !12, i64 64, !12, i64 68, !12, i64 72, !12, i64 76, !37, i64 80, !37, i64 88, !12, i64 96, !12, i64 100, !12, i64 104, !12, i64 108, !12, i64 112, !12, i64 116, !12, i64 120, !44, i64 128, !12, i64 152, !12, i64 156, !12, i64 160, !12, i64 164, !12, i64 168, !12, i64 172}
!44 = !{!"AVChannelLayout", !12, i64 0, !12, i64 4, !7, i64 8, !6, i64 16}
!45 = !{!43, !12, i64 4}
!46 = !{!43, !12, i64 72}
!47 = !{!43, !12, i64 76}
!48 = !{!37, !12, i64 0}
!49 = !{!37, !12, i64 4}
!50 = !{!26, !26, i64 0}
!51 = !{!52, !52, i64 0}
!52 = !{!"p1 _ZTS8AVPacket", !6, i64 0}
!53 = !{!12, !12, i64 0}
!54 = !{!38, !26, i64 72}
!55 = !{!38, !12, i64 36}
!56 = !{!38, !12, i64 40}
