; ModuleID = 'bench/ffmpeg/original/mods.ll'
source_filename = "bench/ffmpeg/original/mods.ll"
target datalayout = "e-m:e-p270:32:32-p271:32:32-p272:64:64-i64:64-i128:128-f80:128-n8:16:32:64-S128"
target triple = "x86_64-pc-linux-gnu"

@.str = private unnamed_addr constant [5 x i8] c"mods\00", align 1
@.str.1 = private unnamed_addr constant [14 x i8] c"MobiClip MODS\00", align 1
@ff_mods_demuxer = local_unnamed_addr constant { { ptr, ptr, i32, [4 x i8], ptr, ptr, ptr, ptr }, i32, i32, i32, [4 x i8], ptr, ptr, ptr, ptr, ptr, ptr, ptr, ptr, ptr, ptr } { { ptr, ptr, i32, [4 x i8], ptr, ptr, ptr, ptr } { ptr @.str, ptr @.str.1, i32 256, [4 x i8] zeroinitializer, ptr @.str, ptr null, ptr null, ptr null }, i32 0, i32 0, i32 0, [4 x i8] zeroinitializer, ptr @mods_probe, ptr @mods_read_header, ptr @mods_read_packet, ptr null, ptr null, ptr null, ptr null, ptr null, ptr null, ptr null }, align 8
@.str.2 = private unnamed_addr constant [9 x i8] c"MODSN3\0A\00\00", align 1

; Function Attrs: mustprogress nofree norecurse nounwind willreturn memory(read, inaccessiblemem: none) uwtable
define internal range(i32 0, 101) i32 @mods_probe(ptr noundef readonly captures(none) %0) #0 {
  %2 = getelementptr inbounds nuw i8, ptr %0, i64 8
  %3 = load ptr, ptr %2, align 8, !tbaa !4
  %bcmp = tail call i32 @bcmp(ptr noundef nonnull dereferenceable(8) %3, ptr noundef nonnull dereferenceable(8) @.str.2, i64 8)
  %.not = icmp eq i32 %bcmp, 0
  br i1 %.not, label %4, label %16

4:                                                ; preds = %1
  %5 = getelementptr inbounds nuw i8, ptr %3, i64 8
  %6 = load i32, ptr %5, align 1, !tbaa !11
  %7 = icmp eq i32 %6, 0
  br i1 %7, label %16, label %8

8:                                                ; preds = %4
  %9 = getelementptr inbounds nuw i8, ptr %3, i64 12
  %10 = load i32, ptr %9, align 1, !tbaa !11
  %11 = icmp eq i32 %10, 0
  br i1 %11, label %16, label %12

12:                                               ; preds = %8
  %13 = getelementptr inbounds nuw i8, ptr %3, i64 16
  %14 = load i32, ptr %13, align 1, !tbaa !11
  %15 = icmp eq i32 %14, 0
  %. = select i1 %15, i32 0, i32 100
  br label %16

16:                                               ; preds = %12, %8, %4, %1
  %.0 = phi i32 [ 0, %1 ], [ 0, %4 ], [ 0, %8 ], [ %., %12 ]
  ret i32 %.0
}

; Function Attrs: nounwind uwtable
define internal range(i32 -12, 1) i32 @mods_read_header(ptr noundef %0) #1 {
  %2 = getelementptr inbounds nuw i8, ptr %0, i64 32
  %3 = load ptr, ptr %2, align 8, !tbaa !12
  %4 = tail call ptr @avformat_new_stream(ptr noundef %0, ptr noundef null) #4
  %.not = icmp eq ptr %4, null
  br i1 %.not, label %28, label %5

5:                                                ; preds = %1
  %6 = tail call i64 @avio_skip(ptr noundef %3, i64 noundef 8) #4
  %7 = tail call i32 @avio_rl32(ptr noundef %3) #4
  %8 = zext i32 %7 to i64
  %9 = getelementptr inbounds nuw i8, ptr %4, i64 56
  store i64 %8, ptr %9, align 8, !tbaa !27
  %10 = getelementptr inbounds nuw i8, ptr %4, i64 16
  %11 = load ptr, ptr %10, align 8, !tbaa !34
  store i32 0, ptr %11, align 8, !tbaa !35
  %12 = getelementptr inbounds nuw i8, ptr %11, i64 4
  store i32 249, ptr %12, align 4, !tbaa !38
  %13 = tail call i32 @avio_rl32(ptr noundef %3) #4
  %14 = load ptr, ptr %10, align 8, !tbaa !34
  %15 = getelementptr inbounds nuw i8, ptr %14, i64 72
  store i32 %13, ptr %15, align 8, !tbaa !39
  %16 = tail call i32 @avio_rl32(ptr noundef %3) #4
  %17 = load ptr, ptr %10, align 8, !tbaa !34
  %18 = getelementptr inbounds nuw i8, ptr %17, i64 76
  store i32 %16, ptr %18, align 4, !tbaa !40
  %19 = tail call i32 @avio_rl32(ptr noundef %3) #4
  tail call void @avpriv_set_pts_info(ptr noundef nonnull %4, i32 noundef 64, i32 noundef 16777216, i32 noundef %19) #4
  %20 = tail call i64 @avio_skip(ptr noundef %3, i64 noundef 16) #4
  %21 = tail call i32 @avio_rl32(ptr noundef %3) #4
  %22 = add i32 %21, 4
  %23 = zext i32 %22 to i64
  %24 = tail call i64 @avio_seek(ptr noundef %3, i64 noundef %23, i32 noundef 0) #4
  %25 = tail call i32 @avio_rl32(ptr noundef %3) #4
  %26 = zext i32 %25 to i64
  %27 = tail call i64 @avio_seek(ptr noundef %3, i64 noundef %26, i32 noundef 0) #4
  br label %28

28:                                               ; preds = %1, %5
  %.0 = phi i32 [ 0, %5 ], [ -12, %1 ]
  ret i32 %.0
}

; Function Attrs: nounwind uwtable
define internal i32 @mods_read_packet(ptr noundef readonly captures(none) %0, ptr noundef %1) #1 {
  %3 = getelementptr inbounds nuw i8, ptr %0, i64 32
  %4 = load ptr, ptr %3, align 8, !tbaa !12
  %5 = tail call i32 @avio_feof(ptr noundef %4) #4
  %.not = icmp eq i32 %5, 0
  br i1 %.not, label %6, label %16

6:                                                ; preds = %2
  %7 = tail call i64 @avio_seek(ptr noundef %4, i64 noundef 0, i32 noundef 1) #4
  %8 = tail call i32 @avio_rl32(ptr noundef %4) #4
  %9 = lshr i32 %8, 14
  %10 = tail call i32 @av_get_packet(ptr noundef %4, ptr noundef %1, i32 noundef %9) #4
  %11 = getelementptr inbounds nuw i8, ptr %1, i64 72
  store i64 %7, ptr %11, align 8, !tbaa !41
  %12 = getelementptr inbounds nuw i8, ptr %1, i64 36
  store i32 0, ptr %12, align 4, !tbaa !42
  %13 = getelementptr inbounds nuw i8, ptr %1, i64 40
  %14 = load i32, ptr %13, align 8, !tbaa !43
  %15 = or i32 %14, 1
  store i32 %15, ptr %13, align 8, !tbaa !43
  br label %16

16:                                               ; preds = %2, %6
  %.0 = phi i32 [ %10, %6 ], [ -541478725, %2 ]
  ret i32 %.0
}

declare ptr @avformat_new_stream(ptr noundef, ptr noundef) local_unnamed_addr #2

declare i64 @avio_skip(ptr noundef, i64 noundef) local_unnamed_addr #2

declare i32 @avio_rl32(ptr noundef) local_unnamed_addr #2

declare void @avpriv_set_pts_info(ptr noundef, i32 noundef, i32 noundef, i32 noundef) local_unnamed_addr #2

declare i64 @avio_seek(ptr noundef, i64 noundef, i32 noundef) local_unnamed_addr #2

declare i32 @avio_feof(ptr noundef) local_unnamed_addr #2

declare i32 @av_get_packet(ptr noundef, ptr noundef, i32 noundef) local_unnamed_addr #2

; Function Attrs: nocallback nofree nounwind willreturn memory(argmem: read)
declare i32 @bcmp(ptr captures(none), ptr captures(none), i64) local_unnamed_addr #3


!llvm.module.flags = !{!0, !1, !2, !3}

!0 = !{i32 1, !"wchar_size", i32 4}
!1 = !{i32 8, !"PIC Level", i32 2}
!2 = !{i32 7, !"uwtable", i32 2}
!3 = !{i32 1, !"override-stack-alignment", i32 16}
!4 = !{!5, !6, i64 8}
!5 = !{!"AVProbeData", !6, i64 0, !6, i64 8, !10, i64 16, !6, i64 24}
!6 = !{!"p1 omnipotent char", !7, i64 0}
!7 = !{!"any pointer", !8, i64 0}
!8 = !{!"omnipotent char", !9, i64 0}
!9 = !{!"Simple C/C++ TBAA"}
!10 = !{!"int", !8, i64 0}
!11 = !{!8, !8, i64 0}
!12 = !{!13, !17, i64 32}
!13 = !{!"AVFormatContext", !14, i64 0, !15, i64 8, !16, i64 16, !7, i64 24, !17, i64 32, !10, i64 40, !10, i64 44, !18, i64 48, !10, i64 56, !20, i64 64, !10, i64 72, !21, i64 80, !6, i64 88, !22, i64 96, !22, i64 104, !22, i64 112, !10, i64 120, !10, i64 124, !10, i64 128, !22, i64 136, !22, i64 144, !6, i64 152, !10, i64 160, !10, i64 164, !23, i64 168, !10, i64 176, !10, i64 180, !10, i64 184, !10, i64 188, !24, i64 192, !22, i64 200, !10, i64 208, !10, i64 212, !25, i64 216, !10, i64 232, !10, i64 236, !10, i64 240, !10, i64 244, !22, i64 248, !10, i64 256, !10, i64 260, !10, i64 264, !10, i64 268, !10, i64 272, !10, i64 276, !10, i64 280, !10, i64 284, !10, i64 288, !10, i64 292, !10, i64 296, !10, i64 300, !22, i64 304, !10, i64 312, !10, i64 316, !10, i64 320, !10, i64 324, !10, i64 328, !6, i64 336, !6, i64 344, !6, i64 352, !6, i64 360, !10, i64 368, !26, i64 376, !26, i64 384, !26, i64 392, !26, i64 400, !10, i64 408, !7, i64 416, !7, i64 424, !22, i64 432, !6, i64 440, !7, i64 448, !7, i64 456, !22, i64 464}
!14 = !{!"p1 _ZTS7AVClass", !7, i64 0}
!15 = !{!"p1 _ZTS13AVInputFormat", !7, i64 0}
!16 = !{!"p1 _ZTS14AVOutputFormat", !7, i64 0}
!17 = !{!"p1 _ZTS11AVIOContext", !7, i64 0}
!18 = !{!"p2 _ZTS8AVStream", !19, i64 0}
!19 = !{!"any p2 pointer", !7, i64 0}
!20 = !{!"p2 _ZTS13AVStreamGroup", !19, i64 0}
!21 = !{!"p2 _ZTS9AVChapter", !19, i64 0}
!22 = !{!"long", !8, i64 0}
!23 = !{!"p2 _ZTS9AVProgram", !19, i64 0}
!24 = !{!"p1 _ZTS12AVDictionary", !7, i64 0}
!25 = !{!"AVIOInterruptCB", !7, i64 0, !7, i64 8}
!26 = !{!"p1 _ZTS7AVCodec", !7, i64 0}
!27 = !{!28, !22, i64 56}
!28 = !{!"AVStream", !14, i64 0, !10, i64 8, !10, i64 12, !29, i64 16, !7, i64 24, !30, i64 32, !22, i64 40, !22, i64 48, !22, i64 56, !10, i64 64, !10, i64 68, !30, i64 72, !24, i64 80, !30, i64 88, !31, i64 96, !10, i64 200, !30, i64 204, !10, i64 212}
!29 = !{!"p1 _ZTS17AVCodecParameters", !7, i64 0}
!30 = !{!"AVRational", !10, i64 0, !10, i64 4}
!31 = !{!"AVPacket", !32, i64 0, !22, i64 8, !22, i64 16, !6, i64 24, !10, i64 32, !10, i64 36, !10, i64 40, !33, i64 48, !10, i64 56, !22, i64 64, !22, i64 72, !7, i64 80, !32, i64 88, !30, i64 96}
!32 = !{!"p1 _ZTS11AVBufferRef", !7, i64 0}
!33 = !{!"p1 _ZTS16AVPacketSideData", !7, i64 0}
!34 = !{!28, !29, i64 16}
!35 = !{!36, !10, i64 0}
!36 = !{!"AVCodecParameters", !10, i64 0, !10, i64 4, !10, i64 8, !6, i64 16, !10, i64 24, !33, i64 32, !10, i64 40, !10, i64 44, !22, i64 48, !10, i64 56, !10, i64 60, !10, i64 64, !10, i64 68, !10, i64 72, !10, i64 76, !30, i64 80, !30, i64 88, !10, i64 96, !10, i64 100, !10, i64 104, !10, i64 108, !10, i64 112, !10, i64 116, !10, i64 120, !37, i64 128, !10, i64 152, !10, i64 156, !10, i64 160, !10, i64 164, !10, i64 168, !10, i64 172}
!37 = !{!"AVChannelLayout", !10, i64 0, !10, i64 4, !8, i64 8, !7, i64 16}
!38 = !{!36, !10, i64 4}
!39 = !{!36, !10, i64 72}
!40 = !{!36, !10, i64 76}
!41 = !{!31, !22, i64 72}
!42 = !{!31, !10, i64 36}
!43 = !{!31, !10, i64 40}
